target datalayout = "e-m:e-p270:32:32-p271:32:32-p272:64:64-i64:64-i128:128-f80:128-n8:16:32:64-S128"
target triple = "x86_64-pc-linux-gnu"

%struct._packet_info = type { ptr, ptr, i32, i32, %struct.nstime_t, %struct.nstime_t, %struct.nstime_t, i8, ptr, ptr, ptr, ptr, %struct._address, %struct._address, %struct._address, %struct._address, %struct._address, %struct._address, i32, ptr, i8, [3 x i8], %struct.anon, i32, i32, i32, i32, ptr, i8, ptr, ptr, i16, i16, i32, i32, i16, i32, i32, ptr, ptr, ptr, i8, i8, i16, i16, i16, i32, i16, i16, ptr, ptr, ptr, ptr, ptr, i32, i32 }
%struct.nstime_t = type { i64, i32 }
%struct._address = type { i32, i32, ptr, ptr }
%struct.anon = type { i8, [3 x i8] }

@hf_gryphon_ldf_ioctl_setflags_flags = internal global i32 0, align 4
@hf_gryphon_ldf_get_frame = internal global i32 0, align 4
@.str.1038 = private unnamed_addr constant [14 x i8] c"(Id not used)\00", align 1
@.str.1039 = private unnamed_addr constant [6 x i8] c"0x%x \00", align 1

; Function Attrs: null_pointer_is_valid sspstrong uwtable
define internal i32 @cmd_ldf_get_frame_info(ptr noundef %0, ptr noundef %1, i32 noundef %2, ptr noundef %3) #0 {
  %5 = alloca ptr, align 8
  %6 = alloca ptr, align 8
  %7 = alloca i32, align 4
  %8 = alloca ptr, align 8
  %9 = alloca ptr, align 8
  %10 = alloca i32, align 4
  %11 = alloca i8, align 1
  store ptr %0, ptr %5, align 8
  store ptr %1, ptr %6, align 8
  store i32 %2, ptr %7, align 4
  store ptr %3, ptr %8, align 8
  call void @llvm.lifetime.start.p0(i64 8, ptr %9) #7
  call void @llvm.lifetime.start.p0(i64 4, ptr %10) #7
  call void @llvm.lifetime.start.p0(i64 1, ptr %11) #7
  %12 = load ptr, ptr %6, align 8
  %13 = getelementptr inbounds nuw %struct._packet_info, ptr %12, i32 0, i32 51
  %14 = load ptr, ptr %13, align 8
  %15 = load ptr, ptr %5, align 8
  %16 = load i32, ptr %7, align 4
  %17 = call ptr @tvb_get_stringz_enc(ptr noundef %14, ptr noundef %15, i32 noundef %16, ptr noundef %10, i32 noundef 0)
  store ptr %17, ptr %9, align 8
  %18 = load i32, ptr %10, align 4
  %19 = icmp sgt i32 %18, 1
  br i1 %19, label %20, label %38

20:                                               ; preds = %4
  %21 = load ptr, ptr %8, align 8
  %22 = load i32, ptr @hf_gryphon_ldf_get_frame, align 4
  %23 = load ptr, ptr %5, align 8
  %24 = load i32, ptr %7, align 4
  %25 = load i32, ptr %10, align 4
  %26 = load ptr, ptr %9, align 8
  %27 = call ptr @proto_tree_add_string(ptr noundef %21, i32 noundef %22, ptr noundef %23, i32 noundef %24, i32 noundef %25, ptr noundef %26)
  %28 = load i32, ptr %10, align 4
  %29 = load i32, ptr %7, align 4
  %30 = add i32 %29, %28
  store i32 %30, ptr %7, align 4
  %31 = load ptr, ptr %8, align 8
  %32 = load i32, ptr @hf_gryphon_ldf_ioctl_setflags_flags, align 4
  %33 = load ptr, ptr %5, align 8
  %34 = load i32, ptr %7, align 4
  %35 = call ptr (ptr, i32, ptr, i32, i32, i32, ptr, ...) @proto_tree_add_uint_format_value(ptr noundef %31, i32 noundef %32, ptr noundef %33, i32 noundef %34, i32 noundef 1, i32 noundef 0, ptr noundef @.str.1038)
  %36 = load i32, ptr %7, align 4
  %37 = add i32 %36, 1
  store i32 %37, ptr %7, align 4
  br label %53

38:                                               ; preds = %4
  %39 = load ptr, ptr %5, align 8
  %40 = load i32, ptr %7, align 4
  %41 = call zeroext i8 @tvb_get_uint8(ptr noundef %39, i32 noundef %40)
  store i8 %41, ptr %11, align 1
  %42 = load ptr, ptr %8, align 8
  %43 = load i32, ptr @hf_gryphon_ldf_ioctl_setflags_flags, align 4
  %44 = load ptr, ptr %5, align 8
  %45 = load i32, ptr %7, align 4
  %46 = load i8, ptr %11, align 1
  %47 = zext i8 %46 to i32
  %48 = load i8, ptr %11, align 1
  %49 = zext i8 %48 to i32
  %50 = call ptr (ptr, i32, ptr, i32, i32, i32, ptr, ...) @proto_tree_add_uint_format_value(ptr noundef %42, i32 noundef %43, ptr noundef %44, i32 noundef %45, i32 noundef 1, i32 noundef %47, ptr noundef @.str.1039, i32 noundef %49)
  %51 = load i32, ptr %7, align 4
  %52 = add i32 %51, 1
  store i32 %52, ptr %7, align 4
  br label %53

53:                                               ; preds = %38, %20
  %54 = load i32, ptr %7, align 4
  call void @llvm.lifetime.end.p0(i64 1, ptr %11) #7
  call void @llvm.lifetime.end.p0(i64 4, ptr %10) #7
  call void @llvm.lifetime.end.p0(i64 8, ptr %9) #7
  ret i32 %54
}