; Function Attrs: null_pointer_is_valid sspstrong uwtable
define internal fastcc i32 @cmd_ldf_get_frame_info(ptr noundef %0, ptr %.408.val, ptr noundef %1) unnamed_addr #0 {
  %3 = alloca i32, align 4
  call void @llvm.lifetime.start.p0(i64 4, ptr nonnull %3) #5
  %4 = call ptr @tvb_get_stringz_enc(ptr noundef %.408.val, ptr noundef %0, i32 noundef 12, ptr noundef nonnull %3, i32 noundef 0)
  %5 = load i32, ptr %3, align 4
  %6 = icmp sgt i32 %5, 1
  br i1 %6, label %7, label %15

7:                                                ; preds = %2
  %8 = load i32, ptr @hf_gryphon_ldf_get_frame, align 4
  %9 = call ptr @proto_tree_add_string(ptr noundef %1, i32 noundef %8, ptr noundef %0, i32 noundef 12, i32 noundef %5, ptr noundef %4)
  %10 = load i32, ptr %3, align 4
  %11 = add i32 %10, 12
  %12 = load i32, ptr @hf_gryphon_ldf_ioctl_setflags_flags, align 4
  %13 = call ptr (ptr, i32, ptr, i32, i32, i32, ptr, ...) @proto_tree_add_uint_format_value(ptr noundef %1, i32 noundef %12, ptr noundef %0, i32 noundef %11, i32 noundef 1, i32 noundef 0, ptr noundef nonnull @.str.1038)
  %14 = add i32 %10, 13
  br label %20

15:                                               ; preds = %2
  %16 = call zeroext i8 @tvb_get_uint8(ptr noundef %0, i32 noundef 12)
  %17 = load i32, ptr @hf_gryphon_ldf_ioctl_setflags_flags, align 4
  %18 = zext i8 %16 to i32
  %19 = call ptr (ptr, i32, ptr, i32, i32, i32, ptr, ...) @proto_tree_add_uint_format_value(ptr noundef %1, i32 noundef %17, ptr noundef %0, i32 noundef 12, i32 noundef 1, i32 noundef %18, ptr noundef nonnull @.str.1039, i32 noundef %18)
  br label %20

20:                                               ; preds = %15, %7
  %.0 = phi i32 [ %14, %7 ], [ 13, %15 ]
  call void @llvm.lifetime.end.p0(i64 4, ptr nonnull %3) #5
  ret i32 %.0
}